	.syntax unified
	.cpu cortex-m4
	.eabi_attribute 27, 3
	.eabi_attribute 28, 1
	.fpu fpv4-sp-d16
	.eabi_attribute 20, 1
	.eabi_attribute 21, 1
	.eabi_attribute 23, 3
	.eabi_attribute 24, 1
	.eabi_attribute 25, 1
	.eabi_attribute 26, 1
	.eabi_attribute 30, 2
	.eabi_attribute 34, 1
	.eabi_attribute 18, 4
	.thumb
	.file	"dac.c"
	.text
.Ltext0:
	.cfi_sections	.debug_frame
	.align	2
	.global	initDAC1
	.thumb
	.thumb_func
	.type	initDAC1, %function
initDAC1:
.LFB110:
	.file 1 "dac.c"
	.loc 1 4 0
	.cfi_startproc
	@ args = 0, pretend = 0, frame = 0
	@ frame_needed = 0, uses_anonymous_args = 0
	@ link register save eliminated.
	.loc 1 9 0
	ldr	r2, .L2
	.loc 1 11 0
	ldr	r3, .L2+4
	.loc 1 9 0
	ldr	r1, [r2, #48]
	.loc 1 14 0
	ldr	r0, .L2+8
	.loc 1 9 0
	orr	r1, r1, #1
	str	r1, [r2, #48]
	.loc 1 10 0
	ldr	r1, [r2, #64]
	orr	r1, r1, #536870912
	str	r1, [r2, #64]
	.loc 1 11 0
	ldr	r2, [r3]
	orr	r2, r2, #768
	str	r2, [r3]
	.loc 1 12 0
	ldr	r2, [r3, #12]
	.loc 1 14 0
	movs	r1, #61
	.loc 1 12 0
	bic	r2, r2, #768
	str	r2, [r3, #12]
	.loc 1 14 0
	str	r1, [r0]
	bx	lr
.L3:
	.align	2
.L2:
	.word	1073887232
	.word	1073872896
	.word	1073771520
	.cfi_endproc
.LFE110:
	.size	initDAC1, .-initDAC1
	.align	2
	.global	setDAC1
	.thumb
	.thumb_func
	.type	setDAC1, %function
setDAC1:
.LFB111:
	.loc 1 18 0
	.cfi_startproc
	@ args = 0, pretend = 0, frame = 0
	@ frame_needed = 0, uses_anonymous_args = 0
	@ link register save eliminated.
.LVL0:
	.loc 1 19 0
	ldr	r1, .L8
.L5:
	.loc 1 19 0 is_stmt 0 discriminator 1
	ldr	r3, [r1, #4]
	ldr	r2, .L8
	lsls	r3, r3, #31
	bmi	.L5
	.loc 1 22 0 is_stmt 1
	ubfx	r0, r0, #0, #12
.LVL1:
	.loc 1 24 0
	movs	r3, #1
	.loc 1 22 0
	str	r0, [r2, #8]
	.loc 1 24 0
	str	r3, [r2, #4]
	bx	lr
.L9:
	.align	2
.L8:
	.word	1073771520
	.cfi_endproc
.LFE111:
	.size	setDAC1, .-setDAC1
	.align	2
	.global	initDmaDAC1
	.thumb
	.thumb_func
	.type	initDmaDAC1, %function
initDmaDAC1:
.LFB112:
	.loc 1 29 0
	.cfi_startproc
	@ args = 0, pretend = 0, frame = 0
	@ frame_needed = 0, uses_anonymous_args = 0
.LVL2:
	.loc 1 33 0
	ldr	r3, .L14
	.loc 1 40 0
	ldr	r2, .L14+4
	.loc 1 29 0
	push	{r4, r5, r6, r7, r8, lr}
	.cfi_def_cfa_offset 24
	.cfi_offset 4, -24
	.cfi_offset 5, -20
	.cfi_offset 6, -16
	.cfi_offset 7, -12
	.cfi_offset 8, -8
	.cfi_offset 14, -4
	.loc 1 33 0
	ldr	r5, [r3, #48]
	.loc 1 34 0
	ldr	r7, .L14+8
	.loc 1 55 0
	ldr	r4, .L14+12
	.loc 1 68 0
	ldr	r6, .L14+16
	.loc 1 33 0
	orr	r5, r5, #1
	str	r5, [r3, #48]
	.loc 1 34 0
	ldr	r5, [r7]
	orr	r5, r5, #768
	str	r5, [r7]
	.loc 1 39 0
	ldr	r5, [r3, #64]
	.loc 1 40 0
	mov	r8, #41
	.loc 1 39 0
	orr	r5, r5, #16
	.loc 1 42 0
	mov	ip, #100
	.loc 1 43 0
	mov	lr, #132
	.loc 1 45 0
	movs	r7, #32
	.loc 1 39 0
	str	r5, [r3, #64]
	.loc 1 40 0
	strh	r8, [r2, #40]	@ movhi
	.loc 1 42 0
	str	ip, [r2, #44]
	.loc 1 43 0
	strh	lr, [r2]	@ movhi
	.loc 1 45 0
	strh	r7, [r2, #4]	@ movhi
	.loc 1 47 0
	ldrh	r5, [r2, #20]
	uxth	r5, r5
	orr	r5, r5, #1
	strh	r5, [r2, #20]	@ movhi
	.loc 1 48 0
	ldrh	r5, [r2]
	uxth	r5, r5
	orr	r5, r5, #1
	strh	r5, [r2]	@ movhi
	.loc 1 53 0
	ldr	r2, [r3, #64]
	orr	r2, r2, #536870912
	str	r2, [r3, #64]
	.loc 1 55 0
	ldr	r2, [r4]
	.loc 1 57 0
	mov	r5, #4096
	.loc 1 55 0
	bic	r2, r2, #1
	str	r2, [r4]
	.loc 1 57 0
	str	r5, [r4]
	.loc 1 58 0
	ldr	r2, [r4]
	orr	r2, r2, #4
	str	r2, [r4]
	.loc 1 61 0
	ldr	r2, [r4]
	orr	r2, r2, #1
	str	r2, [r4]
	.loc 1 66 0
	ldr	r2, [r3, #48]
	.loc 1 68 0
	movs	r5, #0
	.loc 1 66 0
	orr	r2, r2, #2097152
	str	r2, [r3, #48]
	.loc 1 69 0
	mov	r4, r6
	.loc 1 68 0
	str	r5, [r6]
.L11:
	.loc 1 69 0 discriminator 1
	ldr	r2, [r4]
	ldr	r3, .L14+16
	lsls	r2, r2, #31
	bmi	.L11
	.loc 1 71 0
	ldr	r2, .L14+20
	.loc 1 74 0
	ldr	r5, .L14+24
	.loc 1 71 0
	mov	r4, #-1
	str	r4, [r2, #8]
	.loc 1 72 0
	str	r4, [r2, #12]
	.loc 1 74 0
	str	r5, [r3, #8]
	.loc 1 75 0
	str	r0, [r3, #12]
	.loc 1 76 0
	str	r1, [r3, #4]
	.loc 1 78 0
	ldr	r2, [r3]
	orr	r2, r2, #234881024
	str	r2, [r3]
	.loc 1 79 0
	ldr	r2, [r3]
	orr	r2, r2, #196608
	str	r2, [r3]
	.loc 1 82 0
	ldr	r2, [r3]
	orr	r2, r2, #1024
	str	r2, [r3]
	.loc 1 84 0
	ldr	r2, [r3]
	orr	r2, r2, #256
	str	r2, [r3]
	.loc 1 86 0
	ldr	r2, [r3]
	orr	r2, r2, #2048
	str	r2, [r3]
	.loc 1 88 0
	ldr	r2, [r3]
	orr	r2, r2, #8192
	str	r2, [r3]
	.loc 1 90 0
	ldr	r2, [r3]
	orr	r2, r2, #64
	str	r2, [r3]
	.loc 1 92 0
	ldr	r2, [r3]
	orr	r2, r2, #1
	str	r2, [r3]
	pop	{r4, r5, r6, r7, r8, pc}
.L15:
	.align	2
.L14:
	.word	1073887232
	.word	1073745920
	.word	1073872896
	.word	1073771520
	.word	1073897608
	.word	1073897472
	.word	1073771528
	.cfi_endproc
.LFE112:
	.size	initDmaDAC1, .-initDmaDAC1
.Letext0:
	.file 2 "/home/samir/Documents/MSUT/STM32F407/gcc-arm-none-eabi/arm-none-eabi/include/machine/_default_types.h"
	.file 3 "/home/samir/Documents/MSUT/STM32F407/gcc-arm-none-eabi/arm-none-eabi/include/stdint.h"
	.file 4 "../../../STM32F407/Libraries/CMSIS/ST/STM32F4xx/Include/stm32f4xx.h"
	.file 5 "../../../STM32F407/Libraries/CMSIS/Include/core_cm4.h"