	.syntax unified
	.cpu cortex-m4
	.eabi_attribute 27, 3
	.eabi_attribute 28, 1
	.fpu fpv4-sp-d16
	.eabi_attribute 20, 1
	.eabi_attribute 21, 1
	.eabi_attribute 23, 3
	.eabi_attribute 24, 1
	.eabi_attribute 25, 1
	.eabi_attribute 26, 1
	.eabi_attribute 30, 2
	.eabi_attribute 34, 1
	.eabi_attribute 18, 4
	.thumb
	.file	"i2c.c"
	.text
.Ltext0:
	.cfi_sections	.debug_frame
	.align	2
	.global	initI2C
	.thumb
	.thumb_func
	.type	initI2C, %function
initI2C:
.LFB110:
	.file 1 "i2c.c"
	.loc 1 4 0
	.cfi_startproc
	@ args = 0, pretend = 0, frame = 0
	@ frame_needed = 0, uses_anonymous_args = 0
	@ link register save eliminated.
.LVL0:
	.loc 1 6 0
	ldr	r1, .L3
	.loc 1 7 0
	ldr	r3, .L3+4
	.loc 1 6 0
	ldr	r2, [r1, #48]
	orr	r2, r2, #2
	.loc 1 4 0
	push	{r4}
	.cfi_def_cfa_offset 4
	.cfi_offset 4, -4
	.loc 1 6 0
	str	r2, [r1, #48]
	.loc 1 7 0
	ldr	r2, [r3]
	.loc 1 13 0
	ldr	r4, .L3+8
	.loc 1 7 0
	orr	r2, r2, #266240
	str	r2, [r3]
	.loc 1 8 0
	ldr	r2, [r3, #8]
	orr	r2, r2, #532480
	str	r2, [r3, #8]
	.loc 1 9 0
	ldr	r2, [r3, #12]
	orr	r2, r2, #266240
	str	r2, [r3, #12]
	.loc 1 12 0
	ldr	r2, [r3, #20]
	orr	r2, r2, #576
	str	r2, [r3, #20]
	.loc 1 13 0
	strb	r0, [r4]
	.loc 1 14 0
	ldr	r4, [sp], #4
	.cfi_restore 4
	.cfi_def_cfa_offset 0
	bx	lr
.L4:
	.align	2
.L3:
	.word	1073887232
	.word	1073873920
	.word	dev_addr
	.cfi_endproc
.LFE110:
	.size	initI2C, .-initI2C
	.align	2
	.global	startI2CS
	.thumb
	.thumb_func
	.type	startI2CS, %function
startI2CS:
.LFB113:
	.loc 1 75 0
	.cfi_startproc
	@ args = 0, pretend = 0, frame = 0
	@ frame_needed = 0, uses_anonymous_args = 0
	push	{r4, lr}
	.cfi_def_cfa_offset 8
	.cfi_offset 4, -8
	.cfi_offset 14, -4
	.loc 1 77 0
	ldr	r4, .L7
	ldr	r3, [r4]
	orr	r3, r3, #266240
	str	r3, [r4]
	.loc 1 78 0
	ldr	r3, [r4, #20]
	orr	r3, r3, #576
	str	r3, [r4, #20]
	.loc 1 79 0
	movs	r0, #5
	bl	delay_us
.LVL1:
	.loc 1 80 0
	ldr	r3, [r4, #20]
	bic	r3, r3, #512
	str	r3, [r4, #20]
	.loc 1 81 0
	movs	r0, #5
	.loc 1 82 0
	pop	{r4, lr}
	.cfi_restore 14
	.cfi_restore 4
	.cfi_def_cfa_offset 0
	.loc 1 81 0
	b	delay_us
.LVL2:
.L8:
	.align	2
.L7:
	.word	1073873920
	.cfi_endproc
.LFE113:
	.size	startI2CS, .-startI2CS
	.align	2
	.global	stopI2CS
	.thumb
	.thumb_func
	.type	stopI2CS, %function
stopI2CS:
.LFB114:
	.loc 1 85 0
	.cfi_startproc
	@ args = 0, pretend = 0, frame = 0
	@ frame_needed = 0, uses_anonymous_args = 0
	push	{r4, lr}
	.cfi_def_cfa_offset 8
	.cfi_offset 4, -8
	.cfi_offset 14, -4
	.loc 1 86 0
	ldr	r4, .L11
	ldr	r3, [r4, #20]
	bic	r3, r3, #64
	str	r3, [r4, #20]
	.loc 1 87 0
	movs	r0, #2
	bl	delay_us
.LVL3:
	.loc 1 89 0
	ldr	r3, [r4]
	orr	r3, r3, #16384
	str	r3, [r4]
	.loc 1 90 0
	ldr	r3, [r4, #20]
	bic	r3, r3, #512
	str	r3, [r4, #20]
	.loc 1 91 0
	movs	r0, #2
	bl	delay_us
.LVL4:
	.loc 1 93 0
	ldr	r3, [r4, #20]
	orr	r3, r3, #64
	str	r3, [r4, #20]
	.loc 1 94 0
	movs	r0, #1
	bl	delay_us
.LVL5:
	.loc 1 95 0
	ldr	r3, [r4, #20]
	orr	r3, r3, #512
	str	r3, [r4, #20]
	.loc 1 96 0
	movs	r0, #5
	bl	delay_us
.LVL6:
	.loc 1 97 0
	ldr	r3, [r4, #20]
	orr	r3, r3, #576
	str	r3, [r4, #20]
	pop	{r4, pc}
.L12:
	.align	2
.L11:
	.word	1073873920
	.cfi_endproc
.LFE114:
	.size	stopI2CS, .-stopI2CS
	.align	2
	.global	writeByteI2CS
	.thumb
	.thumb_func
	.type	writeByteI2CS, %function
writeByteI2CS:
.LFB115:
	.loc 1 101 0
	.cfi_startproc
	@ args = 0, pretend = 0, frame = 0
	@ frame_needed = 0, uses_anonymous_args = 0
.LVL7:
	push	{r4, r5, r6, lr}
	.cfi_def_cfa_offset 16
	.cfi_offset 4, -16
	.cfi_offset 5, -12
	.cfi_offset 6, -8
	.cfi_offset 14, -4
	.loc 1 103 0
	ldr	r4, .L20
	ldr	r3, [r4]
	orr	r3, r3, #266240
	.loc 1 101 0
	mov	r6, r0
	.loc 1 103 0
	str	r3, [r4]
.LVL8:
	movs	r5, #8
.LVL9:
.L16:
	.loc 1 107 0
	ldr	r3, [r4, #20]
	bic	r3, r3, #64
	str	r3, [r4, #20]
	.loc 1 108 0
	movs	r0, #2
	bl	delay_us
.LVL10:
	.loc 1 111 0
	ldr	r3, [r4, #20]
	.loc 1 110 0
	lsls	r2, r6, #24
	.loc 1 111 0
	ite	mi
	orrmi	r3, r3, #512
	.loc 1 113 0
	bicpl	r3, r3, #512
	str	r3, [r4, #20]
	.loc 1 116 0
	movs	r0, #2
	bl	delay_us
.LVL11:
	.loc 1 118 0
	ldr	r3, [r4, #20]
	orr	r3, r3, #64
	str	r3, [r4, #20]
	.loc 1 119 0
	movs	r0, #4
	bl	delay_us
.LVL12:
	subs	r3, r5, #1
	.loc 1 115 0
	lsls	r6, r6, #1
.LVL13:
	.loc 1 105 0
	ands	r5, r3, #255
.LVL14:
	.loc 1 115 0
	uxtb	r6, r6
.LVL15:
	.loc 1 105 0
	bne	.L16
	.loc 1 121 0
	pop	{r4, r5, r6, pc}
.LVL16:
.L21:
	.align	2
.L20:
	.word	1073873920
	.cfi_endproc
.LFE115:
	.size	writeByteI2CS, .-writeByteI2CS
	.align	2
	.global	readByteI2CS
	.thumb
	.thumb_func
	.type	readByteI2CS, %function
readByteI2CS:
.LFB116:
	.loc 1 124 0
	.cfi_startproc
	@ args = 0, pretend = 0, frame = 0
	@ frame_needed = 0, uses_anonymous_args = 0
.LVL17:
	push	{r4, r5, r6, lr}
	.cfi_def_cfa_offset 16
	.cfi_offset 4, -16
	.cfi_offset 5, -12
	.cfi_offset 6, -8
	.cfi_offset 14, -4
	.loc 1 127 0
	ldr	r4, .L30
	ldr	r3, [r4]
	bic	r3, r3, #786432
	str	r3, [r4]
.LVL18:
	movs	r6, #8
	.loc 1 126 0
	movs	r5, #0
.LVL19:
.L24:
	.loc 1 133 0
	ldr	r3, [r4, #20]
	bic	r3, r3, #64
	str	r3, [r4, #20]
	.loc 1 134 0
	movs	r0, #4
	bl	delay_us
.LVL20:
	.loc 1 136 0
	ldr	r3, [r4, #20]
	orr	r3, r3, #64
	str	r3, [r4, #20]
	.loc 1 137 0
	movs	r0, #2
	bl	delay_us
.LVL21:
	.loc 1 139 0
	ldr	r3, [r4, #16]
	.loc 1 131 0
	lsls	r5, r5, #1
.LVL22:
	.loc 1 139 0
	lsls	r3, r3, #22
	.loc 1 131 0
	uxtb	r5, r5
.LVL23:
	.loc 1 142 0
	mov	r0, #2
	.loc 1 140 0
	it	mi
	orrmi	r5, r5, #1
.LVL24:
	.loc 1 142 0
	bl	delay_us
.LVL25:
	subs	r3, r6, #1
	.loc 1 129 0
	ands	r6, r3, #255
.LVL26:
	bne	.L24
	.loc 1 146 0
	mov	r0, r5
	pop	{r4, r5, r6, pc}
.LVL27:
.L31:
	.align	2
.L30:
	.word	1073873920
	.cfi_endproc
.LFE116:
	.size	readByteI2CS, .-readByteI2CS
	.align	2
	.global	AcksI2CS
	.thumb
	.thumb_func
	.type	AcksI2CS, %function
AcksI2CS:
.LFB117:
	.loc 1 149 0
	.cfi_startproc
	@ args = 0, pretend = 0, frame = 0
	@ frame_needed = 0, uses_anonymous_args = 0
.LVL28:
	push	{r3, r4, r5, lr}
	.cfi_def_cfa_offset 16
	.cfi_offset 3, -16
	.cfi_offset 4, -12
	.cfi_offset 5, -8
	.cfi_offset 14, -4
	.loc 1 152 0
	ldr	r4, .L42
	ldr	r3, [r4, #20]
	bic	r3, r3, #64
	str	r3, [r4, #20]
	.loc 1 153 0
	movs	r0, #1
	bl	delay_us
.LVL29:
	.loc 1 155 0
	ldr	r3, [r4, #20]
	bic	r3, r3, #512
	str	r3, [r4, #20]
	.loc 1 156 0
	ldr	r3, [r4]
	bic	r3, r3, #786432
	str	r3, [r4]
	.loc 1 158 0
	movs	r0, #4
	bl	delay_us
.LVL30:
	.loc 1 160 0
	ldr	r3, [r4, #20]
	orr	r3, r3, #64
	str	r3, [r4, #20]
	.loc 1 161 0
	movs	r0, #2
	bl	delay_us
.LVL31:
	.loc 1 163 0
	ldr	r3, [r4, #16]
	lsls	r3, r3, #22
	bpl	.L34
	mov	r5, r4
	movs	r4, #19
.LVL32:
.L33:
	.loc 1 168 0
	movs	r0, #1
	bl	delay_us
.LVL33:
	.loc 1 163 0
	ldr	r3, [r5, #16]
	subs	r4, r4, #1
.LVL34:
	tst	r3, #512
	uxth	r4, r4
	beq	.L34
	.loc 1 166 0
	cmp	r4, #0
	bne	.L33
.L34:
	.loc 1 171 0
	movs	r0, #2
	bl	delay_us
.LVL35:
	.loc 1 172 0
	ldr	r2, .L42
	ldr	r3, [r2]
	orr	r3, r3, #262144
	str	r3, [r2]
	pop	{r3, r4, r5, pc}
.L43:
	.align	2
.L42:
	.word	1073873920
	.cfi_endproc
.LFE117:
	.size	AcksI2CS, .-AcksI2CS
	.align	2
	.global	writeI2C
	.thumb
	.thumb_func
	.type	writeI2C, %function
writeI2C:
.LFB112:
	.loc 1 50 0
	.cfi_startproc
	@ args = 0, pretend = 0, frame = 0
	@ frame_needed = 0, uses_anonymous_args = 0
.LVL36:
	.loc 1 53 0
	cbz	r2, .L50
	.loc 1 50 0
	push	{r3, r4, r5, r6, r7, lr}
	.cfi_def_cfa_offset 24
	.cfi_offset 3, -24
	.cfi_offset 4, -20
	.cfi_offset 5, -16
	.cfi_offset 6, -12
	.cfi_offset 7, -8
	.cfi_offset 14, -4
	subs	r2, r2, #1
.LVL37:
	ldr	r7, .L51
	mov	r4, r0
.LVL38:
	uxtah	r6, r1, r2
	subs	r5, r1, #1
.LVL39:
.L46:
	.loc 1 55 0 discriminator 3
	bl	startI2CS
.LVL40:
	.loc 1 57 0 discriminator 3
	ldrb	r0, [r7]	@ zero_extendqisi2
	bl	writeByteI2CS
.LVL41:
	.loc 1 58 0 discriminator 3
	bl	AcksI2CS
.LVL42:
	.loc 1 60 0 discriminator 3
	mov	r0, r4
	bl	writeByteI2CS
.LVL43:
	.loc 1 61 0 discriminator 3
	bl	AcksI2CS
.LVL44:
	.loc 1 64 0 discriminator 3
	ldrb	r0, [r5, #1]!	@ zero_extendqisi2
	bl	writeByteI2CS
.LVL45:
	.loc 1 65 0 discriminator 3
	bl	AcksI2CS
.LVL46:
	.loc 1 67 0 discriminator 3
	bl	stopI2CS
.LVL47:
	.loc 1 69 0 discriminator 3
	movs	r0, #5
	bl	delay_ms
.LVL48:
	.loc 1 70 0 discriminator 3
	adds	r4, r4, #1
.LVL49:
	.loc 1 53 0 discriminator 3
	cmp	r5, r6
	.loc 1 70 0 discriminator 3
	uxtb	r4, r4
.LVL50:
	.loc 1 53 0 discriminator 3
	bne	.L46
	pop	{r3, r4, r5, r6, r7, pc}
.LVL51:
.L50:
	.cfi_def_cfa_offset 0
	.cfi_restore 3
	.cfi_restore 4
	.cfi_restore 5
	.cfi_restore 6
	.cfi_restore 7
	.cfi_restore 14
	bx	lr
.L52:
	.align	2
.L51:
	.word	dev_addr
	.cfi_endproc
.LFE112:
	.size	writeI2C, .-writeI2C
	.align	2
	.global	AckmI2CS
	.thumb
	.thumb_func
	.type	AckmI2CS, %function
AckmI2CS:
.LFB118:
	.loc 1 176 0
	.cfi_startproc
	@ args = 0, pretend = 0, frame = 0
	@ frame_needed = 0, uses_anonymous_args = 0
	push	{r4, lr}
	.cfi_def_cfa_offset 8
	.cfi_offset 4, -8
	.cfi_offset 14, -4
	.loc 1 177 0
	ldr	r4, .L55
	ldr	r3, [r4, #20]
	bic	r3, r3, #64
	str	r3, [r4, #20]
	.loc 1 178 0
	movs	r0, #1
	bl	delay_us
.LVL52:
	.loc 1 180 0
	ldr	r3, [r4]
	orr	r3, r3, #262144
	str	r3, [r4]
	.loc 1 181 0
	ldr	r3, [r4, #20]
	bic	r3, r3, #512
	str	r3, [r4, #20]
	.loc 1 182 0
	movs	r0, #4
	bl	delay_us
.LVL53:
	.loc 1 185 0
	ldr	r3, [r4, #20]
	orr	r3, r3, #64
	str	r3, [r4, #20]
	.loc 1 186 0
	movs	r0, #4
	bl	delay_us
.LVL54:
	.loc 1 187 0
	ldr	r3, [r4, #20]
	bic	r3, r3, #64
	str	r3, [r4, #20]
	pop	{r4, pc}
.L56:
	.align	2
.L55:
	.word	1073873920
	.cfi_endproc
.LFE118:
	.size	AckmI2CS, .-AckmI2CS
	.align	2
	.global	NackmI2CS
	.thumb
	.thumb_func
	.type	NackmI2CS, %function
NackmI2CS:
.LFB119:
	.loc 1 192 0
	.cfi_startproc
	@ args = 0, pretend = 0, frame = 0
	@ frame_needed = 0, uses_anonymous_args = 0
	push	{r4, lr}
	.cfi_def_cfa_offset 8
	.cfi_offset 4, -8
	.cfi_offset 14, -4
	.loc 1 193 0
	ldr	r4, .L59
	ldr	r3, [r4, #20]
	bic	r3, r3, #64
	str	r3, [r4, #20]
	.loc 1 194 0
	movs	r0, #2
	bl	delay_us
.LVL55:
	.loc 1 196 0
	ldr	r3, [r4]
	orr	r3, r3, #262144
	str	r3, [r4]
	.loc 1 197 0
	ldr	r3, [r4, #20]
	orr	r3, r3, #512
	str	r3, [r4, #20]
	.loc 1 198 0
	movs	r0, #2
	bl	delay_us
.LVL56:
	.loc 1 201 0
	ldr	r3, [r4, #20]
	orr	r3, r3, #64
	str	r3, [r4, #20]
	.loc 1 202 0
	movs	r0, #4
	.loc 1 204 0
	pop	{r4, lr}
	.cfi_restore 14
	.cfi_restore 4
	.cfi_def_cfa_offset 0
	.loc 1 202 0
	b	delay_us
.LVL57:
.L60:
	.align	2
.L59:
	.word	1073873920
	.cfi_endproc
.LFE119:
	.size	NackmI2CS, .-NackmI2CS
	.align	2
	.global	readI2C
	.thumb
	.thumb_func
	.type	readI2C, %function
readI2C:
.LFB111:
	.loc 1 17 0
	.cfi_startproc
	@ args = 0, pretend = 0, frame = 0
	@ frame_needed = 0, uses_anonymous_args = 0
.LVL58:
	push	{r3, r4, r5, r6, r7, lr}
	.cfi_def_cfa_offset 24
	.cfi_offset 3, -24
	.cfi_offset 4, -20
	.cfi_offset 5, -16
	.cfi_offset 6, -12
	.cfi_offset 7, -8
	.cfi_offset 14, -4
	.loc 1 22 0
	ldr	r4, .L69
	.loc 1 17 0
	mov	r5, r2
	mov	r6, r1
	mov	r7, r0
	.loc 1 20 0
	bl	startI2CS
.LVL59:
	.loc 1 22 0
	ldrb	r0, [r4]	@ zero_extendqisi2
	bl	writeByteI2CS
.LVL60:
	.loc 1 23 0
	bl	AcksI2CS
.LVL61:
	.loc 1 25 0
	mov	r0, r7
	bl	writeByteI2CS
.LVL62:
	.loc 1 26 0
	bl	AcksI2CS
.LVL63:
	.loc 1 28 0
	bl	startI2CS
.LVL64:
	.loc 1 30 0
	ldrb	r0, [r4]	@ zero_extendqisi2
	orr	r0, r0, #1
	bl	writeByteI2CS
.LVL65:
	.loc 1 31 0
	bl	AcksI2CS
.LVL66:
	.loc 1 33 0
	cbz	r5, .L61
	subs	r5, r5, #1
	uxtah	r7, r6, r5
	subs	r4, r6, #1
	b	.L65
.LVL67:
.L63:
	.loc 1 44 0
	bl	AckmI2CS
.LVL68:
	.loc 1 33 0
	cmp	r4, r7
	beq	.L61
.L65:
.LVL69:
	.loc 1 35 0
	bl	readByteI2CS
.LVL70:
	strb	r0, [r4, #1]!
.LVL71:
	subs	r3, r4, r6
	.loc 1 37 0
	cmp	r3, r5
	bne	.L63
	.loc 1 39 0
	bl	NackmI2CS
.LVL72:
	.loc 1 40 0
	bl	stopI2CS
.LVL73:
	.loc 1 33 0
	cmp	r4, r7
	bne	.L65
.L61:
	pop	{r3, r4, r5, r6, r7, pc}
.LVL74:
.L70:
	.align	2
.L69:
	.word	dev_addr
	.cfi_endproc
.LFE111:
	.size	readI2C, .-readI2C
	.comm	dev_addr,1,1
.Letext0:
	.file 2 "/home/samir/Documents/MSUT/STM32F407/gcc-arm-none-eabi/arm-none-eabi/include/machine/_default_types.h"
	.file 3 "/home/samir/Documents/MSUT/STM32F407/gcc-arm-none-eabi/arm-none-eabi/include/stdint.h"
	.file 4 "../../../STM32F407/Libraries/CMSIS/ST/STM32F4xx/Include/stm32f4xx.h"
	.file 5 "../../../STM32F407/Libraries/CMSIS/Include/core_cm4.h"
	.file 6 "i2c.h"
	.file 7 "delay.h"