	.cpu cortex-m4
	.eabi_attribute 27, 1
	.eabi_attribute 28, 1
	.eabi_attribute 20, 1
	.eabi_attribute 21, 1
	.eabi_attribute 23, 3
	.eabi_attribute 24, 1
	.eabi_attribute 25, 1
	.eabi_attribute 26, 1
	.eabi_attribute 30, 2
	.eabi_attribute 34, 1
	.eabi_attribute 18, 4
	.file	"usart.c"
	.text
.Ltext0:
	.cfi_sections	.debug_frame
	.align	1
	.p2align 2,,3
	.global	initUSART3
	.syntax unified
	.thumb
	.thumb_func
	.fpu fpv4-sp-d16
	.type	initUSART3, %function
initUSART3:
.LFB113:
	.file 1 "usart.c"
	.loc 1 15 0
	.cfi_startproc
	@ args = 0, pretend = 0, frame = 0
	@ frame_needed = 0, uses_anonymous_args = 0
	@ link register save eliminated.
.LVL0:
	.loc 1 18 0
	ldr	r2, .L4
	.loc 1 19 0
	ldr	r3, .L4+4
	.loc 1 18 0
	ldr	r1, [r2, #48]
	orr	r1, r1, #8
	.loc 1 15 0
	push	{r4}
	.cfi_def_cfa_offset 4
	.cfi_offset 4, -4
	.loc 1 18 0
	str	r1, [r2, #48]
	.loc 1 19 0
	ldr	r1, [r3]
	.loc 1 25 0
	ldr	r4, .L4+8
	.loc 1 19 0
	bic	r1, r1, #983040
	str	r1, [r3]
	.loc 1 20 0
	ldr	r1, [r3]
	orr	r1, r1, #655360
	str	r1, [r3]
	.loc 1 21 0
	ldr	r1, [r3, #36]
	orr	r1, r1, #119
	str	r1, [r3, #36]
	.loc 1 24 0
	ldr	r3, [r2, #64]
	.loc 1 25 0
	uxth	r0, r0
.LVL1:
	.loc 1 24 0
	orr	r3, r3, #262144
	.loc 1 26 0
	movw	r1, #8204
	.loc 1 24 0
	str	r3, [r2, #64]
	.loc 1 25 0
	strh	r0, [r4, #8]	@ movhi
	.loc 1 26 0
	strh	r1, [r4, #12]	@ movhi
	.loc 1 27 0
	ldr	r4, [sp], #4
	.cfi_restore 4
	.cfi_def_cfa_offset 0
	bx	lr
.L5:
	.align	2
.L4:
	.word	1073887232
	.word	1073875968
	.word	1073760256
	.cfi_endproc
.LFE113:
	.size	initUSART3, .-initUSART3
	.align	1
	.p2align 2,,3
	.global	enIrqUSART3
	.syntax unified
	.thumb
	.thumb_func
	.fpu fpv4-sp-d16
	.type	enIrqUSART3, %function
enIrqUSART3:
.LFB114:
	.loc 1 30 0
	.cfi_startproc
	@ args = 0, pretend = 0, frame = 0
	@ frame_needed = 0, uses_anonymous_args = 0
	@ link register save eliminated.
	.loc 1 31 0
	ldr	r2, .L7
.LBB18:
.LBB19:
	.file 2 "../sdk/core_cm4.h"
	.loc 2 1075 0
	ldr	r1, .L7+4
.LBE19:
.LBE18:
	.loc 1 31 0
	ldrh	r3, [r2, #12]
	bic	r3, r3, #8192
	lsls	r3, r3, #16
	lsrs	r3, r3, #16
.LBB22:
.LBB20:
	.loc 2 1075 0
	movs	r0, #128
.LBE20:
.LBE22:
	.loc 1 31 0
	strh	r3, [r2, #12]	@ movhi
.LVL2:
.LBB23:
.LBB21:
	.loc 2 1075 0
	str	r0, [r1, #4]
.LVL3:
.LBE21:
.LBE23:
	.loc 1 34 0
	ldrh	r3, [r2, #12]
	orr	r3, r3, #8192
	orr	r3, r3, #36
	strh	r3, [r2, #12]	@ movhi
	.loc 1 35 0
	bx	lr
.L8:
	.align	2
.L7:
	.word	1073760256
	.word	-536813312
	.cfi_endproc
.LFE114:
	.size	enIrqUSART3, .-enIrqUSART3
	.align	1
	.p2align 2,,3
	.global	USART3_IRQHandler
	.syntax unified
	.thumb
	.thumb_func
	.fpu fpv4-sp-d16
	.type	USART3_IRQHandler, %function
USART3_IRQHandler:
.LFB115:
	.loc 1 38 0
	.cfi_startproc
	@ args = 0, pretend = 0, frame = 0
	@ frame_needed = 0, uses_anonymous_args = 0
	@ link register save eliminated.
	.loc 1 39 0
	ldr	r3, .L13
	ldrh	r2, [r3]
	lsls	r2, r2, #26
	bpl	.L9
	.loc 1 41 0
	ldr	r2, .L13+4
	ldrh	r1, [r3, #4]
	ldrh	r3, [r2]
	ldr	r0, .L13+8
	uxth	r3, r3
	uxtb	r1, r1
	strb	r1, [r0, r3]
	.loc 1 42 0
	ldrh	r3, [r2]
	adds	r3, r3, #1
	uxth	r3, r3
	strh	r3, [r2]	@ movhi
	.loc 1 44 0
	ldrh	r3, [r2]
	cmp	r3, #512
	.loc 1 46 0
	itt	cs
	movcs	r3, #0
	strhcs	r3, [r2]	@ movhi
.L9:
	.loc 1 49 0
	bx	lr
.L14:
	.align	2
.L13:
	.word	1073760256
	.word	.LANCHOR0
	.word	g_usart3_buffer
	.cfi_endproc
.LFE115:
	.size	USART3_IRQHandler, .-USART3_IRQHandler
	.align	1
	.p2align 2,,3
	.global	chkRxBuffUSART3
	.syntax unified
	.thumb
	.thumb_func
	.fpu fpv4-sp-d16
	.type	chkRxBuffUSART3, %function
chkRxBuffUSART3:
.LFB116:
	.loc 1 52 0
	.cfi_startproc
	@ args = 0, pretend = 0, frame = 0
	@ frame_needed = 0, uses_anonymous_args = 0
	@ link register save eliminated.
	.loc 1 53 0
	ldr	r3, .L17
	ldrh	r1, [r3, #2]
	ldrh	r2, [r3]
	uxth	r2, r2
	cmp	r2, r1
	beq	.L15
	.loc 1 55 0
	ldrh	r2, [r3, #2]
	cmp	r2, #512
	.loc 1 57 0
	itt	cs
	movcs	r2, #0
	strhcs	r2, [r3, #2]	@ movhi
.L15:
	.loc 1 60 0
	bx	lr
.L18:
	.align	2
.L17:
	.word	.LANCHOR0
	.cfi_endproc
.LFE116:
	.size	chkRxBuffUSART3, .-chkRxBuffUSART3
	.align	1
	.p2align 2,,3
	.global	putcharUSART3
	.syntax unified
	.thumb
	.thumb_func
	.fpu fpv4-sp-d16
	.type	putcharUSART3, %function
putcharUSART3:
.LFB117:
	.loc 1 63 0
	.cfi_startproc
	@ args = 0, pretend = 0, frame = 0
	@ frame_needed = 0, uses_anonymous_args = 0
	@ link register save eliminated.
.LVL4:
	.loc 1 66 0
	ldr	r2, .L23
.L20:
	.loc 1 66 0 is_stmt 0 discriminator 1
	ldrh	r3, [r2]
	lsls	r3, r3, #25
	bpl	.L20
	.loc 1 67 0 is_stmt 1
	uxth	r0, r0
.LVL5:
	strh	r0, [r2, #4]	@ movhi
	.loc 1 68 0
	bx	lr
.L24:
	.align	2
.L23:
	.word	1073760256
	.cfi_endproc
.LFE117:
	.size	putcharUSART3, .-putcharUSART3
	.align	1
	.p2align 2,,3
	.global	getcharUSART3
	.syntax unified
	.thumb
	.thumb_func
	.fpu fpv4-sp-d16
	.type	getcharUSART3, %function
getcharUSART3:
.LFB118:
	.loc 1 72 0
	.cfi_startproc
	@ args = 0, pretend = 0, frame = 0
	@ frame_needed = 0, uses_anonymous_args = 0
	@ link register save eliminated.
	.loc 1 74 0
	ldr	r3, .L29
	ldrh	r2, [r3, #12]
	orr	r2, r2, #8192
	orr	r2, r2, #4
	strh	r2, [r3, #12]	@ movhi
.L26:
	.loc 1 75 0 discriminator 1
	ldrh	r2, [r3]
	lsls	r2, r2, #26
	bpl	.L26
	.loc 1 77 0
	ldrh	r0, [r3, #4]
.LVL6:
	.loc 1 78 0
	ldrh	r2, [r3]
	bic	r2, r2, #32
	lsls	r2, r2, #16
	lsrs	r2, r2, #16
	strh	r2, [r3]	@ movhi
	.loc 1 79 0
	ldrh	r2, [r3, #12]
	bic	r2, r2, #4
	lsls	r2, r2, #16
	lsrs	r2, r2, #16
	.loc 1 81 0
	sxtb	r0, r0
	.loc 1 79 0
	strh	r2, [r3, #12]	@ movhi
	.loc 1 81 0
	bx	lr
.L30:
	.align	2
.L29:
	.word	1073760256
	.cfi_endproc
.LFE118:
	.size	getcharUSART3, .-getcharUSART3
	.align	1
	.p2align 2,,3
	.global	chkUSART3flag
	.syntax unified
	.thumb
	.thumb_func
	.fpu fpv4-sp-d16
	.type	chkUSART3flag, %function
chkUSART3flag:
.LFB119:
	.loc 1 84 0
	.cfi_startproc
	@ args = 0, pretend = 0, frame = 0
	@ frame_needed = 0, uses_anonymous_args = 0
	@ link register save eliminated.
.LVL7:
	.loc 1 87 0
	ldr	r3, .L35
	ldrh	r1, [r3, #2]
	ldrh	r2, [r3]
	uxth	r2, r2
	cmp	r2, r1
	beq	.L33
.LVL8:
	.loc 1 90 0
	ldrh	r2, [r3, #2]
	adds	r2, r2, #1
	uxth	r2, r2
	strh	r2, [r3, #2]	@ movhi
	.loc 1 92 0
	ldrh	r2, [r3, #2]
	cmp	r2, #512
	bcc	.L34
	.loc 1 94 0
	movs	r2, #0
	strh	r2, [r3, #2]	@ movhi
	movs	r0, #1
	bx	lr
.L34:
	movs	r0, #1
.LVL9:
	.loc 1 98 0
	bx	lr
.LVL10:
.L33:
	movs	r0, #0
	bx	lr
.L36:
	.align	2
.L35:
	.word	.LANCHOR0
	.cfi_endproc
.LFE119:
	.size	chkUSART3flag, .-chkUSART3flag
	.align	1
	.p2align 2,,3
	.global	initUSART2
	.syntax unified
	.thumb
	.thumb_func
	.fpu fpv4-sp-d16
	.type	initUSART2, %function
initUSART2:
.LFB120:
	.loc 1 102 0
	.cfi_startproc
	@ args = 0, pretend = 0, frame = 0
	@ frame_needed = 0, uses_anonymous_args = 0
	@ link register save eliminated.
.LVL11:
	.loc 1 107 0
	ldr	r2, .L39
	.loc 1 109 0
	ldr	r3, .L39+4
	.loc 1 107 0
	ldr	r1, [r2, #48]
	orr	r1, r1, #1
	.loc 1 102 0
	push	{r4}
	.cfi_def_cfa_offset 4
	.cfi_offset 4, -4
	.loc 1 107 0
	str	r1, [r2, #48]
	.loc 1 108 0
	ldr	r1, [r2, #64]
	.loc 1 115 0
	ldr	r4, .L39+8
	.loc 1 108 0
	orr	r1, r1, #131072
	str	r1, [r2, #64]
	.loc 1 109 0
	ldr	r2, [r3]
	orr	r2, r2, #160
	str	r2, [r3]
	.loc 1 110 0
	ldr	r2, [r3, #32]
	orr	r2, r2, #30464
	str	r2, [r3, #32]
	.loc 1 112 0
	ldr	r2, [r3, #8]
	orr	r2, r2, #32
	str	r2, [r3, #8]
	.loc 1 113 0
	ldr	r2, [r3, #8]
	.loc 1 115 0
	uxth	r0, r0
.LVL12:
	.loc 1 113 0
	orr	r2, r2, #128
	.loc 1 116 0
	movw	r1, #8204
	.loc 1 113 0
	str	r2, [r3, #8]
	.loc 1 115 0
	strh	r0, [r4, #8]	@ movhi
	.loc 1 116 0
	strh	r1, [r4, #12]	@ movhi
	.loc 1 117 0
	ldr	r4, [sp], #4
	.cfi_restore 4
	.cfi_def_cfa_offset 0
	bx	lr
.L40:
	.align	2
.L39:
	.word	1073887232
	.word	1073872896
	.word	1073759232
	.cfi_endproc
.LFE120:
	.size	initUSART2, .-initUSART2
	.align	1
	.p2align 2,,3
	.global	enIrqUSART2
	.syntax unified
	.thumb
	.thumb_func
	.fpu fpv4-sp-d16
	.type	enIrqUSART2, %function
enIrqUSART2:
.LFB121:
	.loc 1 120 0
	.cfi_startproc
	@ args = 0, pretend = 0, frame = 0
	@ frame_needed = 0, uses_anonymous_args = 0
	@ link register save eliminated.
	.loc 1 121 0
	ldr	r2, .L42
.LBB24:
.LBB25:
	.loc 2 1075 0
	ldr	r1, .L42+4
.LBE25:
.LBE24:
	.loc 1 121 0
	ldrh	r3, [r2, #12]
	bic	r3, r3, #8192
	lsls	r3, r3, #16
	lsrs	r3, r3, #16
.LBB28:
.LBB26:
	.loc 2 1075 0
	movs	r0, #64
.LBE26:
.LBE28:
	.loc 1 121 0
	strh	r3, [r2, #12]	@ movhi
.LVL13:
.LBB29:
.LBB27:
	.loc 2 1075 0
	str	r0, [r1, #4]
.LVL14:
.LBE27:
.LBE29:
	.loc 1 124 0
	ldrh	r3, [r2, #12]
	orr	r3, r3, #8192
	orr	r3, r3, #36
	strh	r3, [r2, #12]	@ movhi
	.loc 1 125 0
	bx	lr
.L43:
	.align	2
.L42:
	.word	1073759232
	.word	-536813312
	.cfi_endproc
.LFE121:
	.size	enIrqUSART2, .-enIrqUSART2
	.align	1
	.p2align 2,,3
	.global	USART2_IRQHandler
	.syntax unified
	.thumb
	.thumb_func
	.fpu fpv4-sp-d16
	.type	USART2_IRQHandler, %function
USART2_IRQHandler:
.LFB122:
	.loc 1 128 0
	.cfi_startproc
	@ args = 0, pretend = 0, frame = 0
	@ frame_needed = 0, uses_anonymous_args = 0
	@ link register save eliminated.
	.loc 1 130 0
	ldr	r3, .L48
	ldrh	r2, [r3]
	lsls	r2, r2, #26
	bpl	.L44
	.loc 1 132 0
	ldr	r2, .L48+4
	ldrh	r1, [r3, #4]
	ldrh	r3, [r2, #4]
	ldr	r0, .L48+8
	uxth	r3, r3
	uxtb	r1, r1
	strb	r1, [r0, r3]
	.loc 1 133 0
	ldrh	r3, [r2, #4]
	adds	r3, r3, #1
	uxth	r3, r3
	strh	r3, [r2, #4]	@ movhi
	.loc 1 134 0
	ldrh	r3, [r2, #4]
	cmp	r3, #512
	.loc 1 136 0
	itt	cs
	movcs	r3, #0
	strhcs	r3, [r2, #4]	@ movhi
.L44:
	.loc 1 139 0
	bx	lr
.L49:
	.align	2
.L48:
	.word	1073759232
	.word	.LANCHOR0
	.word	g_usart2_buffer
	.cfi_endproc
.LFE122:
	.size	USART2_IRQHandler, .-USART2_IRQHandler
	.align	1
	.p2align 2,,3
	.global	putcharUSART2
	.syntax unified
	.thumb
	.thumb_func
	.fpu fpv4-sp-d16
	.type	putcharUSART2, %function
putcharUSART2:
.LFB125:
	.loc 1 212 0
	.cfi_startproc
	@ args = 0, pretend = 0, frame = 0
	@ frame_needed = 0, uses_anonymous_args = 0
	@ link register save eliminated.
.LVL15:
	.loc 1 213 0
	ldr	r2, .L54
.L51:
	.loc 1 213 0 is_stmt 0 discriminator 1
	ldrh	r3, [r2]
	lsls	r3, r3, #25
	bpl	.L51
	.loc 1 215 0 is_stmt 1
	uxth	r0, r0
.LVL16:
	strh	r0, [r2, #4]	@ movhi
	.loc 1 216 0
	bx	lr
.L55:
	.align	2
.L54:
	.word	1073759232
	.cfi_endproc
.LFE125:
	.size	putcharUSART2, .-putcharUSART2
	.align	1
	.p2align 2,,3
	.global	sprintUSART2
	.syntax unified
	.thumb
	.thumb_func
	.fpu fpv4-sp-d16
	.type	sprintUSART2, %function
sprintUSART2:
.LFB127:
	.loc 1 389 0
	.cfi_startproc
	@ args = 0, pretend = 0, frame = 0
	@ frame_needed = 0, uses_anonymous_args = 0
	@ link register save eliminated.
.LVL17:
.LBB30:
.LBB31:
	.loc 1 213 0
	ldr	r2, .L69
.LBE31:
.LBE30:
	.loc 1 389 0
	push	{r4, r5}
	.cfi_def_cfa_offset 8
	.cfi_offset 4, -8
	.cfi_offset 5, -4
	subs	r4, r0, #1
.LBB33:
.LBB34:
	.loc 1 215 0
	movs	r5, #13
	addw	r0, r0, #1023
.LVL18:
.L57:
.LBE34:
.LBE33:
	.loc 1 392 0
	ldrb	r1, [r4, #1]!	@ zero_extendqisi2
.LVL19:
	cbz	r1, .L56
.L58:
.LBB36:
.LBB32:
	.loc 1 213 0
	ldrh	r3, [r2]
	lsls	r3, r3, #25
	bpl	.L58
	.loc 1 215 0
	uxth	r1, r1
	strh	r1, [r2, #4]	@ movhi
.LBE32:
.LBE36:
	.loc 1 395 0
	ldrb	r3, [r4]	@ zero_extendqisi2
	cmp	r3, #10
	beq	.L60
.L59:
.LVL20:
	.loc 1 399 0
	cmp	r4, r0
	bne	.L57
.LVL21:
.L56:
	.loc 1 402 0
	pop	{r4, r5}
	.cfi_remember_state
	.cfi_restore 5
	.cfi_restore 4
	.cfi_def_cfa_offset 0
	bx	lr
.L60:
	.cfi_restore_state
.LBB37:
.LBB35:
	.loc 1 213 0
	ldrh	r3, [r2]
	lsls	r3, r3, #25
	bpl	.L60
	.loc 1 215 0
	strh	r5, [r2, #4]	@ movhi
	b	.L59
.L70:
	.align	2
.L69:
	.word	1073759232
.LBE35:
.LBE37:
	.cfi_endproc
.LFE127:
	.size	sprintUSART2, .-sprintUSART2
	.align	1
	.p2align 2,,3
	.global	printUSART2
	.syntax unified
	.thumb
	.thumb_func
	.fpu fpv4-sp-d16
	.type	printUSART2, %function
printUSART2:
.LFB126:
	.loc 1 219 0
	.cfi_startproc
	@ args = 4, pretend = 16, frame = 48
	@ frame_needed = 0, uses_anonymous_args = 1
.LVL22:
	push	{r0, r1, r2, r3}
	.cfi_def_cfa_offset 16
	.cfi_offset 0, -16
	.cfi_offset 1, -12
	.cfi_offset 2, -8
	.cfi_offset 3, -4
	push	{r4, r5, r6, r7, r8, fp, lr}
	.cfi_def_cfa_offset 44
	.cfi_offset 4, -44
	.cfi_offset 5, -40
	.cfi_offset 6, -36
	.cfi_offset 7, -32
	.cfi_offset 8, -28
	.cfi_offset 11, -24
	.cfi_offset 14, -20
	sub	sp, sp, #52
	.cfi_def_cfa_offset 96
	.loc 1 219 0
	add	r3, sp, #80
	ldr	r6, [r3], #4
	.loc 1 229 0
	str	r3, [sp, #4]
.LVL23:
	.loc 1 230 0
	ldrb	r2, [r6]	@ zero_extendqisi2
	cbz	r2, .L71
	.loc 1 221 0
	movs	r4, #0
.LBB38:
.LBB39:
	.loc 1 213 0
	ldr	r5, .L122
.LBE39:
.LBE38:
.LBB41:
	.loc 1 315 0
	ldr	r7, .L122+4
.LBE41:
	.loc 1 230 0
	mov	r3, r4
	mov	r1, r6
.LBB42:
.LBB43:
	.loc 1 215 0
	mov	r8, #13
.LVL24:
.L98:
.LBE43:
.LBE42:
	.loc 1 232 0
	cmp	r2, #37
	bne	.L73
	.loc 1 234 0
	add	r3, r3, r6
	ldrb	r2, [r3, #1]	@ zero_extendqisi2
	cbz	r2, .L74
	.loc 1 236 0
	subs	r2, r2, #98
	cmp	r2, #22
	bhi	.L75
	tbb	[pc, r2]
.L77:
	.byte	(.L76-.L77)/2
	.byte	(.L78-.L77)/2
	.byte	(.L79-.L77)/2
	.byte	(.L75-.L77)/2
	.byte	(.L80-.L77)/2
	.byte	(.L75-.L77)/2
	.byte	(.L75-.L77)/2
	.byte	(.L75-.L77)/2
	.byte	(.L75-.L77)/2
	.byte	(.L75-.L77)/2
	.byte	(.L75-.L77)/2
	.byte	(.L75-.L77)/2
	.byte	(.L75-.L77)/2
	.byte	(.L75-.L77)/2
	.byte	(.L75-.L77)/2
	.byte	(.L75-.L77)/2
	.byte	(.L75-.L77)/2
	.byte	(.L81-.L77)/2
	.byte	(.L75-.L77)/2
	.byte	(.L75-.L77)/2
	.byte	(.L75-.L77)/2
	.byte	(.L75-.L77)/2
	.byte	(.L82-.L77)/2
	.p2align 1
.L73:
.LBB45:
.LBB40:
	.loc 1 213 0
	ldrh	r3, [r5]
	lsls	r0, r3, #25
	bpl	.L73
	.loc 1 215 0
	uxth	r2, r2
	strh	r2, [r5, #4]	@ movhi
.LBE40:
.LBE45:
	.loc 1 378 0
	ldrb	r3, [r1]	@ zero_extendqisi2
	cmp	r3, #10
	beq	.L97
.L74:
	.loc 1 381 0
	adds	r4, r4, #1
.LVL25:
	uxth	r4, r4
.LVL26:
	.loc 1 230 0
	mov	r3, r4
	ldrb	r2, [r6, r4]	@ zero_extendqisi2
	adds	r1, r6, r4
	cmp	r2, #0
	bne	.L98
.LVL27:
.L71:
	.loc 1 386 0
	add	sp, sp, #52
	.cfi_remember_state
	.cfi_def_cfa_offset 44
.LVL28:
	@ sp needed
	pop	{r4, r5, r6, r7, r8, fp, lr}
	.cfi_restore 14
	.cfi_restore 11
	.cfi_restore 8
	.cfi_restore 7
	.cfi_restore 6
	.cfi_restore 5
	.cfi_restore 4
	.cfi_def_cfa_offset 16
	add	sp, sp, #16
	.cfi_restore 3
	.cfi_restore 2
	.cfi_restore 1
	.cfi_restore 0
	.cfi_def_cfa_offset 0
	bx	lr
.LVL29:
.L97:
	.cfi_restore_state
.LBB46:
.LBB44:
	.loc 1 213 0
	ldrh	r3, [r5]
	lsls	r3, r3, #25
	bpl	.L97
	.loc 1 215 0
	strh	r8, [r5, #4]	@ movhi
	b	.L74
.L82:
.LBE44:
.LBE46:
	.loc 1 332 0
	ldrb	r3, [r3, #2]	@ zero_extendqisi2
	ldr	r2, [sp, #4]
	cmp	r3, #98
	add	r1, r2, #4
	ldr	r2, [r2]
	beq	.L116
	.loc 1 337 0
	cmp	r3, #104
	beq	.L117
	.loc 1 342 0
	cmp	r3, #119
	.loc 1 354 0
	itt	eq
	addeq	r4, r4, #1
.LVL30:
	uxtheq	r4, r4
	.loc 1 349 0
	strd	r2, r1, [sp]
.LVL31:
	.loc 1 350 0
	mov	r0, #2048
	b	.L84
.LVL32:
.L81:
	.loc 1 303 0
	ldr	r3, [sp, #4]
	adds	r2, r3, #4
	.loc 1 304 0
	ldr	r0, [r3]
	.loc 1 303 0
	str	r2, [sp, #4]
	.loc 1 304 0
	bl	sprintUSART2
.LVL33:
.L91:
	.loc 1 372 0
	adds	r4, r4, #1
.LVL34:
	uxth	r4, r4
.LVL35:
	b	.L74
.L80:
.LBB47:
	.loc 1 310 0
	ldr	r3, [sp, #4]
	adds	r3, r3, #7
	bic	r3, r3, #7
	ldrd	fp, [r3]
.LVL36:
	adds	r3, r3, #8
	.loc 1 315 0
	and	r2, r7, ip, lsl #3
	.loc 1 317 0
	cmp	fp, #0
	.loc 1 316 0
	orr	r2, r2, fp, lsr #29
	.loc 1 310 0
	str	r3, [sp, #4]
	.loc 1 320 0
	mov	r0, #0
	.loc 1 317 0
	sbcs	r3, ip, #0
	.loc 1 320 0
	and	r1, ip, #1073741824
	.loc 1 318 0
	it	lt
	orrlt	r2, r2, #-2147483648
	.loc 1 320 0
	orrs	r3, r0, r1
	.loc 1 318 0
	str	r2, [sp]
	.loc 1 320 0
	beq	.L99
	.loc 1 321 0
	ldr	r3, [sp]
	orr	r3, r3, #1073741824
	str	r3, [sp]
	mov	r0, #256
	b	.L84
.LVL37:
.L79:
.LBE47:
	.loc 1 268 0
	ldrb	r3, [r3, #2]	@ zero_extendqisi2
	ldr	r2, [sp, #4]
	cmp	r3, #98
	add	r1, r2, #4
	ldr	r2, [r2]
	beq	.L118
	.loc 1 273 0
	cmp	r3, #104
	beq	.L119
	.loc 1 278 0
	cmp	r3, #119
	.loc 1 290 0
	itt	eq
	addeq	r4, r4, #1
.LVL38:
	uxtheq	r4, r4
	.loc 1 285 0
	strd	r2, r1, [sp]
.LVL39:
	.loc 1 286 0
	movs	r0, #32
	b	.L84
.LVL40:
.L78:
.LBB48:
	.loc 1 296 0
	ldr	r3, [sp, #4]
	adds	r1, r3, #4
	ldrb	r2, [r3]	@ zero_extendqisi2
.LVL41:
	str	r1, [sp, #4]
.L90:
.LBB49:
.LBB50:
	.loc 1 213 0
	ldrh	r3, [r5]
	lsls	r3, r3, #25
	bpl	.L90
	.loc 1 215 0
	uxth	r3, r2
	strh	r3, [r5, #4]	@ movhi
.LVL42:
.LBE50:
.LBE49:
	.loc 1 299 0
	b	.L91
.LVL43:
.L76:
.LBE48:
	.loc 1 240 0
	ldrb	r3, [r3, #2]	@ zero_extendqisi2
	ldr	r2, [sp, #4]
	cmp	r3, #98
	add	r1, r2, #4
	ldr	r2, [r2]
	beq	.L120
	.loc 1 245 0
	cmp	r3, #104
	beq	.L121
	.loc 1 250 0
	cmp	r3, #119
	.loc 1 257 0
	strd	r2, r1, [sp]
	.loc 1 262 0
	itt	eq
	addeq	r4, r4, #1
.LVL44:
	uxtheq	r4, r4
.LVL45:
	.loc 1 258 0
	movs	r0, #4
.LVL46:
.L84:
	.loc 1 369 0
	add	r2, sp, #8
	mov	r1, sp
	bl	getStr4NumMISC
.LVL47:
	.loc 1 370 0
	add	r0, sp, #8
	bl	sprintUSART2
.LVL48:
	b	.L91
.L75:
	.loc 1 360 0
	movs	r3, #0
	str	r3, [sp]
.LVL49:
	.loc 1 363 0
	b	.L91
.LVL50:
.L99:
.LBB51:
	mov	r0, #256
	b	.L84
.LVL51:
.L116:
.LBE51:
	.loc 1 354 0
	adds	r4, r4, #1
.LVL52:
	uxth	r4, r4
	.loc 1 334 0
	strd	r2, r1, [sp]
.LVL53:
	.loc 1 335 0
	mov	r0, #512
	b	.L84
.LVL54:
.L120:
	.loc 1 262 0
	adds	r4, r4, #1
.LVL55:
	uxth	r4, r4
	.loc 1 242 0
	strd	r2, r1, [sp]
.LVL56:
	.loc 1 243 0
	movs	r0, #1
	b	.L84
.LVL57:
.L118:
	.loc 1 290 0
	adds	r4, r4, #1
.LVL58:
	uxth	r4, r4
	.loc 1 270 0
	strd	r2, r1, [sp]
.LVL59:
	.loc 1 271 0
	movs	r0, #8
	b	.L84
.LVL60:
.L121:
	.loc 1 262 0
	adds	r4, r4, #1
.LVL61:
	uxth	r4, r4
	.loc 1 247 0
	strd	r2, r1, [sp]
.LVL62:
	.loc 1 248 0
	movs	r0, #2
	b	.L84
.LVL63:
.L117:
	.loc 1 354 0
	adds	r4, r4, #1
.LVL64:
	uxth	r4, r4
	.loc 1 339 0
	strd	r2, r1, [sp]
.LVL65:
	.loc 1 340 0
	mov	r0, #1024
	b	.L84
.LVL66:
.L119:
	.loc 1 290 0
	adds	r4, r4, #1
.LVL67:
	uxth	r4, r4
	.loc 1 275 0
	strd	r2, r1, [sp]
.LVL68:
	.loc 1 276 0
	movs	r0, #16
	b	.L84
.L123:
	.align	2
.L122:
	.word	1073759232
	.word	1073741816
	.cfi_endproc
.LFE126:
	.size	printUSART2, .-printUSART2
	.align	1
	.p2align 2,,3
	.global	serviceUSART2
	.syntax unified
	.thumb
	.thumb_func
	.fpu fpv4-sp-d16
	.type	serviceUSART2, %function
serviceUSART2:
.LFB123:
	.loc 1 141 0
	.cfi_startproc
	@ args = 0, pretend = 0, frame = 0
	@ frame_needed = 0, uses_anonymous_args = 0
	@ link register save eliminated.
	.loc 1 142 0
	ldr	r1, .L135
	ldr	r0, .L135+4
	ldrh	r3, [r1, #6]
	uxth	r3, r3
	adds	r2, r3, #1
	uxth	r2, r2
	strh	r2, [r1, #6]	@ movhi
	ldrb	r3, [r0, r3]	@ zero_extendqisi2
	subs	r3, r3, #59
	cmp	r3, #56
	bhi	.L124
	tbb	[pc, r3]
.L127:
	.byte	(.L126-.L127)/2
	.byte	(.L124-.L127)/2
	.byte	(.L124-.L127)/2
	.byte	(.L124-.L127)/2
	.byte	(.L124-.L127)/2
	.byte	(.L124-.L127)/2
	.byte	(.L124-.L127)/2
	.byte	(.L124-.L127)/2
	.byte	(.L124-.L127)/2
	.byte	(.L124-.L127)/2
	.byte	(.L124-.L127)/2
	.byte	(.L124-.L127)/2
	.byte	(.L124-.L127)/2
	.byte	(.L124-.L127)/2
	.byte	(.L124-.L127)/2
	.byte	(.L124-.L127)/2
	.byte	(.L124-.L127)/2
	.byte	(.L124-.L127)/2
	.byte	(.L124-.L127)/2
	.byte	(.L124-.L127)/2
	.byte	(.L124-.L127)/2
	.byte	(.L124-.L127)/2
	.byte	(.L124-.L127)/2
	.byte	(.L124-.L127)/2
	.byte	(.L124-.L127)/2
	.byte	(.L124-.L127)/2
	.byte	(.L124-.L127)/2
	.byte	(.L124-.L127)/2
	.byte	(.L124-.L127)/2
	.byte	(.L124-.L127)/2
	.byte	(.L124-.L127)/2
	.byte	(.L124-.L127)/2
	.byte	(.L124-.L127)/2
	.byte	(.L124-.L127)/2
	.byte	(.L124-.L127)/2
	.byte	(.L124-.L127)/2
	.byte	(.L124-.L127)/2
	.byte	(.L124-.L127)/2
	.byte	(.L128-.L127)/2
	.byte	(.L124-.L127)/2
	.byte	(.L124-.L127)/2
	.byte	(.L129-.L127)/2
	.byte	(.L124-.L127)/2
	.byte	(.L130-.L127)/2
	.byte	(.L124-.L127)/2
	.byte	(.L124-.L127)/2
	.byte	(.L124-.L127)/2
	.byte	(.L131-.L127)/2
	.byte	(.L132-.L127)/2
	.byte	(.L133-.L127)/2
	.byte	(.L124-.L127)/2
	.byte	(.L124-.L127)/2
	.byte	(.L124-.L127)/2
	.byte	(.L124-.L127)/2
	.byte	(.L124-.L127)/2
	.byte	(.L124-.L127)/2
	.byte	(.L134-.L127)/2
	.p2align 1
.L134:
	.loc 1 152 0
	ldr	r3, .L135+8
	.loc 1 153 0
	ldr	r0, .L135+12
	.loc 1 152 0
	movs	r2, #2
	strb	r2, [r3]
	.loc 1 153 0
	b	printUSART2
.LVL69:
.L126:
	.loc 1 188 0
	ldr	r3, .L135+8
	.loc 1 189 0
	ldr	r0, .L135+16
	.loc 1 188 0
	movs	r2, #8
	strb	r2, [r3]
	.loc 1 189 0
	b	printUSART2
.LVL70:
.L128:
	.loc 1 146 0
	ldr	r3, .L135+8
	.loc 1 147 0
	ldr	r0, .L135+20
	.loc 1 146 0
	movs	r2, #1
	strb	r2, [r3]
	.loc 1 147 0
	b	printUSART2
.LVL71:
.L129:
	.loc 1 158 0
	ldr	r3, .L135+8
	.loc 1 159 0
	ldr	r0, .L135+24
	.loc 1 158 0
	movs	r2, #3
	strb	r2, [r3]
	.loc 1 159 0
	b	printUSART2
.LVL72:
.L130:
	.loc 1 164 0
	ldr	r3, .L135+8
	.loc 1 165 0
	ldr	r0, .L135+28
	.loc 1 164 0
	movs	r2, #4
	strb	r2, [r3]
	.loc 1 165 0
	b	printUSART2
.LVL73:
.L131:
	.loc 1 170 0
	ldr	r3, .L135+8
	.loc 1 171 0
	ldr	r0, .L135+32
	.loc 1 170 0
	movs	r2, #5
	strb	r2, [r3]
	.loc 1 171 0
	b	printUSART2
.LVL74:
.L132:
	.loc 1 176 0
	ldr	r3, .L135+8
	.loc 1 177 0
	ldr	r0, .L135+36
	.loc 1 176 0
	movs	r2, #6
	strb	r2, [r3]
	.loc 1 177 0
	b	printUSART2
.LVL75:
.L133:
	.loc 1 182 0
	ldr	r3, .L135+8
	.loc 1 183 0
	ldr	r0, .L135+40
	.loc 1 182 0
	movs	r2, #7
	strb	r2, [r3]
	.loc 1 183 0
	b	printUSART2
.LVL76:
.L124:
	.loc 1 197 0
	bx	lr
.L136:
	.align	2
.L135:
	.word	.LANCHOR0
	.word	g_usart2_buffer
	.word	noteTag
	.word	.LC1
	.word	.LC7
	.word	.LC0
	.word	.LC2
	.word	.LC3
	.word	.LC4
	.word	.LC5
	.word	.LC6
	.cfi_endproc
.LFE123:
	.size	serviceUSART2, .-serviceUSART2
	.align	1
	.p2align 2,,3
	.global	chkBuffUSART2
	.syntax unified
	.thumb
	.thumb_func
	.fpu fpv4-sp-d16
	.type	chkBuffUSART2, %function
chkBuffUSART2:
.LFB124:
	.loc 1 199 0
	.cfi_startproc
	@ args = 0, pretend = 0, frame = 0
	@ frame_needed = 0, uses_anonymous_args = 0
	push	{r4, lr}
	.cfi_def_cfa_offset 8
	.cfi_offset 4, -8
	.cfi_offset 14, -4
	.loc 1 200 0
	ldr	r4, .L142
	ldrh	r2, [r4, #6]
	ldrh	r3, [r4, #4]
	uxth	r3, r3
	cmp	r3, r2
	beq	.L137
	.loc 1 202 0
	bl	serviceUSART2
.LVL77:
	.loc 1 204 0
	ldrh	r3, [r4, #6]
	cmp	r3, #512
	.loc 1 206 0
	itt	cs
	movcs	r3, #0
	strhcs	r3, [r4, #6]	@ movhi
.L137:
	.loc 1 209 0
	pop	{r4, pc}
.L143:
	.align	2
.L142:
	.word	.LANCHOR0
	.cfi_endproc
.LFE124:
	.size	chkBuffUSART2, .-chkBuffUSART2
	.align	1
	.p2align 2,,3
	.global	getcharUSART2
	.syntax unified
	.thumb
	.thumb_func
	.fpu fpv4-sp-d16
	.type	getcharUSART2, %function
getcharUSART2:
.LFB128:
	.loc 1 405 0
	.cfi_startproc
	@ args = 0, pretend = 0, frame = 0
	@ frame_needed = 0, uses_anonymous_args = 0
	@ link register save eliminated.
	.loc 1 407 0
	ldr	r3, .L148
	ldrh	r2, [r3, #12]
	orr	r2, r2, #8192
	orr	r2, r2, #4
	strh	r2, [r3, #12]	@ movhi
.L145:
	.loc 1 408 0 discriminator 1
	ldrh	r2, [r3]
	lsls	r2, r2, #26
	bpl	.L145
	.loc 1 410 0
	ldrh	r0, [r3, #4]
.LVL78:
	.loc 1 411 0
	ldrh	r2, [r3]
	bic	r2, r2, #32
	lsls	r2, r2, #16
	lsrs	r2, r2, #16
	strh	r2, [r3]	@ movhi
	.loc 1 412 0
	ldrh	r2, [r3, #12]
	bic	r2, r2, #4
	lsls	r2, r2, #16
	lsrs	r2, r2, #16
	.loc 1 414 0
	uxtb	r0, r0
	.loc 1 412 0
	strh	r2, [r3, #12]	@ movhi
	.loc 1 414 0
	bx	lr
.L149:
	.align	2
.L148:
	.word	1073759232
	.cfi_endproc
.LFE128:
	.size	getcharUSART2, .-getcharUSART2
	.comm	noteTag,1,1
	.global	g_usart2_ridx
	.global	g_usart2_widx
	.comm	g_usart2_buffer,512,4
	.global	g_usart3_ridx
	.global	g_usart3_widx
	.comm	g_usart3_buffer,512,4
	.bss
	.align	1
	.set	.LANCHOR0,. + 0
	.type	g_usart3_widx, %object
	.size	g_usart3_widx, 2
g_usart3_widx:
	.space	2
	.type	g_usart3_ridx, %object
	.size	g_usart3_ridx, 2
g_usart3_ridx:
	.space	2
	.type	g_usart2_widx, %object
	.size	g_usart2_widx, 2
g_usart2_widx:
	.space	2
	.type	g_usart2_ridx, %object
	.size	g_usart2_ridx, 2
g_usart2_ridx:
	.space	2
	.section	.rodata.str1.4,"aMS",%progbits,1
	.align	2
.LC0:
	.ascii	"A\000"
	.space	2
.LC1:
	.ascii	"S\000"
	.space	2
.LC2:
	.ascii	"D\000"
	.space	2
.LC3:
	.ascii	"F\000"
	.space	2
.LC4:
	.ascii	"J\000"
	.space	2
.LC5:
	.ascii	"K\000"
	.space	2
.LC6:
	.ascii	"L\000"
	.space	2
.LC7:
	.ascii	";\000"
	.text
.Letext0:
	.file 3 "/home/emina/msut/gcc-arm-none-eabi/arm-none-eabi/include/machine/_default_types.h"
	.file 4 "/home/emina/msut/gcc-arm-none-eabi/lib/gcc/arm-none-eabi/7.3.1/include/stdarg.h"
	.file 5 "/home/emina/msut/gcc-arm-none-eabi/arm-none-eabi/include/stdio.h"
	.file 6 "/home/emina/msut/gcc-arm-none-eabi/arm-none-eabi/include/sys/lock.h"
	.file 7 "/home/emina/msut/gcc-arm-none-eabi/arm-none-eabi/include/sys/_types.h"
	.file 8 "/home/emina/msut/gcc-arm-none-eabi/lib/gcc/arm-none-eabi/7.3.1/include/stddef.h"
	.file 9 "/home/emina/msut/gcc-arm-none-eabi/arm-none-eabi/include/sys/reent.h"
	.file 10 "<built-in>"
	.file 11 "/home/emina/msut/gcc-arm-none-eabi/arm-none-eabi/include/sys/_stdint.h"
	.file 12 "../sdk/stm32f4xx.h"
	.file 13 "../sdk/system_stm32f4xx.h"
	.file 14 "usart.h"
	.file 15 "misc.h"